target datalayout = "e-m:e-p270:32:32-p271:32:32-p272:64:64-i64:64-i128:128-f80:128-n8:16:32:64-S128"
target triple = "x86_64-pc-linux-gnu"

%"class.grpc_core::PolymorphicRefCount" = type { ptr }
%"class.grpc_core::RefCount" = type { %"struct.std::atomic" }
%"struct.std::atomic" = type { %"struct.std::__atomic_base" }
%"struct.std::__atomic_base" = type { i64 }
%"class.grpc_core::RefCounted.72" = type { %"class.grpc_core::PolymorphicRefCount", %"class.grpc_core::RefCount" }
%struct.grpc_arg = type { i32, ptr, %"union.(anonymous struct)::grpc_arg_value" }
%"union.(anonymous struct)::grpc_arg_value" = type { %"struct.(anonymous struct)::grpc_arg_value::grpc_arg_pointer" }
%"struct.(anonymous struct)::grpc_arg_value::grpc_arg_pointer" = type { ptr, ptr }
%"class.grpc_core::RefCountedPtr.36" = type { ptr }

@.str.35 = private unnamed_addr constant [32 x i8] c"grpc.internal.channelz_security\00", align 1

; Function Attrs: alwaysinline mustprogress nounwind uwtable
define linkonce_odr noundef i64 @_ZNSt13__atomic_baseIlE9fetch_addElSt12memory_order(ptr noundef nonnull align 8 dereferenceable(8) %0, i64 noundef %1, i32 noundef %2) #10 comdat align 2 {
  %4 = alloca ptr, align 8
  %5 = alloca i64, align 8
  %6 = alloca i32, align 4
  %7 = alloca i64, align 8
  %8 = alloca i64, align 8
  store ptr %0, ptr %4, align 8, !tbaa !35
  store i64 %1, ptr %5, align 8, !tbaa !29
  store i32 %2, ptr %6, align 4, !tbaa !37
  %9 = load ptr, ptr %4, align 8
  %10 = getelementptr inbounds nuw %"struct.std::__atomic_base", ptr %9, i32 0, i32 0
  %11 = load i32, ptr %6, align 4, !tbaa !37
  %12 = load i64, ptr %5, align 8, !tbaa !29
  store i64 %12, ptr %7, align 8, !tbaa !29
  switch i32 %11, label %13 [
    i32 1, label %16
    i32 2, label %16
    i32 3, label %19
    i32 4, label %22
    i32 5, label %25
  ]

13:                                               ; preds = %3
  %14 = load i64, ptr %7, align 8
  %15 = atomicrmw add ptr %10, i64 %14 monotonic, align 8
  store i64 %15, ptr %8, align 8
  br label %28

16:                                               ; preds = %3, %3
  %17 = load i64, ptr %7, align 8
  %18 = atomicrmw add ptr %10, i64 %17 acquire, align 8
  store i64 %18, ptr %8, align 8
  br label %28

19:                                               ; preds = %3
  %20 = load i64, ptr %7, align 8
  %21 = atomicrmw add ptr %10, i64 %20 release, align 8
  store i64 %21, ptr %8, align 8
  br label %28

22:                                               ; preds = %3
  %23 = load i64, ptr %7, align 8
  %24 = atomicrmw add ptr %10, i64 %23 acq_rel, align 8
  store i64 %24, ptr %8, align 8
  br label %28

25:                                               ; preds = %3
  %26 = load i64, ptr %7, align 8
  %27 = atomicrmw add ptr %10, i64 %26 seq_cst, align 8
  store i64 %27, ptr %8, align 8
  br label %28

28:                                               ; preds = %25, %22, %19, %16, %13
  %29 = load i64, ptr %8, align 8, !tbaa !29
  ret i64 %29
}

; Function Attrs: mustprogress nounwind uwtable
define linkonce_odr void @_ZN9grpc_core8RefCount3RefEl(ptr noundef nonnull align 8 dereferenceable(8) %0, i64 noundef %1) #5 comdat align 2 {
  %3 = alloca ptr, align 8
  %4 = alloca i64, align 8
  store ptr %0, ptr %3, align 8, !tbaa !454
  store i64 %1, ptr %4, align 8, !tbaa !29
  %5 = load ptr, ptr %3, align 8
  %6 = getelementptr inbounds nuw %"class.grpc_core::RefCount", ptr %5, i32 0, i32 0
  %7 = load i64, ptr %4, align 8, !tbaa !29
  %8 = call noundef i64 @_ZNSt13__atomic_baseIlE9fetch_addElSt12memory_order(ptr noundef nonnull align 8 dereferenceable(8) %6, i64 noundef %7, i32 noundef 0) #3
  ret void
}

; Function Attrs: mustprogress nounwind uwtable
define linkonce_odr void @_ZN9grpc_core13RefCountedPtrINS_8channelz10SocketNode8SecurityEEC2IS3_TnNSt9enable_ifIXsr3std14is_convertibleIPT_PS3_EE5valueEbE4typeELb1EEES8_(ptr noundef nonnull align 8 dereferenceable(8) %0, ptr noundef %1) unnamed_addr #5 comdat align 2 {
  %3 = alloca ptr, align 8
  %4 = alloca ptr, align 8
  store ptr %0, ptr %3, align 8, !tbaa !211
  store ptr %1, ptr %4, align 8, !tbaa !186
  %5 = load ptr, ptr %3, align 8
  %6 = getelementptr inbounds nuw %"class.grpc_core::RefCountedPtr.36", ptr %5, i32 0, i32 0
  %7 = load ptr, ptr %4, align 8, !tbaa !186
  store ptr %7, ptr %6, align 8, !tbaa !213
  ret void
}

; Function Attrs: mustprogress nounwind uwtable
define linkonce_odr void @_ZNK9grpc_core10RefCountedINS_8channelz10SocketNode8SecurityENS_19PolymorphicRefCountENS_11UnrefDeleteEE17IncrementRefCountEv(ptr noundef nonnull align 8 dereferenceable(16) %0) #5 comdat align 2 {
  %2 = alloca ptr, align 8
  store ptr %0, ptr %2, align 8, !tbaa !209
  %3 = load ptr, ptr %2, align 8
  %4 = getelementptr inbounds nuw %"class.grpc_core::RefCounted.72", ptr %3, i32 0, i32 1
  call void @_ZN9grpc_core8RefCount3RefEl(ptr noundef nonnull align 8 dereferenceable(8) %4, i64 noundef 1)
  ret void
}

; Function Attrs: mustprogress nounwind uwtable
define linkonce_odr void @_ZN9grpc_core13RefCountedPtrINS_8channelz10SocketNode8SecurityEEC2EDn(ptr noundef nonnull align 8 dereferenceable(8) %0, ptr %1) unnamed_addr #5 comdat align 2 {
  %3 = alloca ptr, align 8
  %4 = alloca ptr, align 8
  store ptr %0, ptr %3, align 8, !tbaa !211
  store ptr %1, ptr %4, align 8, !tbaa !130
  %5 = load ptr, ptr %3, align 8
  %6 = getelementptr inbounds nuw %"class.grpc_core::RefCountedPtr.36", ptr %5, i32 0, i32 0
  store ptr null, ptr %6, align 8, !tbaa !213
  ret void
}

; Function Attrs: mustprogress uwtable
define linkonce_odr void @_ZN9grpc_core10RefCountedINS_8channelz10SocketNode8SecurityENS_19PolymorphicRefCountENS_11UnrefDeleteEE3RefEv(ptr dead_on_unwind noalias writable sret(%"class.grpc_core::RefCountedPtr.36") align 8 %0, ptr noundef nonnull align 8 dereferenceable(16) %1) #4 comdat align 2 {
  %3 = alloca ptr, align 8
  %4 = alloca ptr, align 8
  store ptr %0, ptr %3, align 8
  store ptr %1, ptr %4, align 8, !tbaa !209
  %5 = load ptr, ptr %4, align 8
  call void @_ZNK9grpc_core10RefCountedINS_8channelz10SocketNode8SecurityENS_19PolymorphicRefCountENS_11UnrefDeleteEE17IncrementRefCountEv(ptr noundef nonnull align 8 dereferenceable(16) %5)
  call void @_ZN9grpc_core13RefCountedPtrINS_8channelz10SocketNode8SecurityEEC2IS3_TnNSt9enable_ifIXsr3std14is_convertibleIPT_PS3_EE5valueEbE4typeELb1EEES8_(ptr noundef nonnull align 8 dereferenceable(8) %0, ptr noundef %5)
  ret void
}

; Function Attrs: mustprogress uwtable
define linkonce_odr noundef ptr @_Z30grpc_channel_args_find_pointerIN9grpc_core8channelz10SocketNode8SecurityEEPT_PK17grpc_channel_argsPKc(ptr noundef %0, ptr noundef %1) #4 comdat {
  %3 = alloca ptr, align 8
  %4 = alloca ptr, align 8
  %5 = alloca ptr, align 8
  %6 = alloca ptr, align 8
  %7 = alloca i32, align 4
  store ptr %0, ptr %4, align 8, !tbaa !135
  store ptr %1, ptr %5, align 8, !tbaa !28
  call void @llvm.lifetime.start.p0(i64 8, ptr %6) #3
  %8 = load ptr, ptr %4, align 8, !tbaa !135
  %9 = load ptr, ptr %5, align 8, !tbaa !28
  %10 = call noundef ptr @_Z22grpc_channel_args_findPK17grpc_channel_argsPKc(ptr noundef %8, ptr noundef %9)
  store ptr %10, ptr %6, align 8, !tbaa !135
  %11 = load ptr, ptr %6, align 8, !tbaa !135
  %12 = icmp eq ptr %11, null
  br i1 %12, label %18, label %13

13:                                               ; preds = %2
  %14 = load ptr, ptr %6, align 8, !tbaa !135
  %15 = getelementptr inbounds nuw %struct.grpc_arg, ptr %14, i32 0, i32 0
  %16 = load i32, ptr %15, align 8, !tbaa !206
  %17 = icmp ne i32 %16, 2
  br i1 %17, label %18, label %19

18:                                               ; preds = %13, %2
  store ptr null, ptr %3, align 8
  store i32 1, ptr %7, align 4
  br label %24

19:                                               ; preds = %13
  %20 = load ptr, ptr %6, align 8, !tbaa !135
  %21 = getelementptr inbounds nuw %struct.grpc_arg, ptr %20, i32 0, i32 2
  %22 = getelementptr inbounds nuw %"struct.(anonymous struct)::grpc_arg_value::grpc_arg_pointer", ptr %21, i32 0, i32 0
  %23 = load ptr, ptr %22, align 8, !tbaa !30
  store ptr %23, ptr %3, align 8
  store i32 1, ptr %7, align 4
  br label %24

24:                                               ; preds = %19, %18
  call void @llvm.lifetime.end.p0(i64 8, ptr %6) #3
  %25 = load ptr, ptr %3, align 8
  ret ptr %25
}

; Function Attrs: mustprogress uwtable
define void @_ZN9grpc_core8channelz10SocketNode8Security18GetFromChannelArgsEPK17grpc_channel_args(ptr dead_on_unwind noalias writable sret(%"class.grpc_core::RefCountedPtr.36") align 8 %0, ptr noundef %1) #4 align 2 {
  %3 = alloca ptr, align 8
  %4 = alloca ptr, align 8
  %5 = alloca ptr, align 8
  store ptr %0, ptr %3, align 8
  store ptr %1, ptr %4, align 8, !tbaa !135
  call void @llvm.lifetime.start.p0(i64 8, ptr %5) #3
  %6 = load ptr, ptr %4, align 8, !tbaa !135
  %7 = call noundef ptr @_Z30grpc_channel_args_find_pointerIN9grpc_core8channelz10SocketNode8SecurityEEPT_PK17grpc_channel_argsPKc(ptr noundef %6, ptr noundef @.str.35)
  store ptr %7, ptr %5, align 8, !tbaa !186
  %8 = load ptr, ptr %5, align 8, !tbaa !186
  %9 = icmp ne ptr %8, null
  br i1 %9, label %10, label %12

10:                                               ; preds = %2
  %11 = load ptr, ptr %5, align 8, !tbaa !186
  call void @_ZN9grpc_core10RefCountedINS_8channelz10SocketNode8SecurityENS_19PolymorphicRefCountENS_11UnrefDeleteEE3RefEv(ptr dead_on_unwind writable sret(%"class.grpc_core::RefCountedPtr.36") align 8 %0, ptr noundef nonnull align 8 dereferenceable(16) %11)
  br label %13

12:                                               ; preds = %2
  call void @_ZN9grpc_core13RefCountedPtrINS_8channelz10SocketNode8SecurityEEC2EDn(ptr noundef nonnull align 8 dereferenceable(8) %0, ptr null)
  br label %13

13:                                               ; preds = %12, %10
  call void @llvm.lifetime.end.p0(i64 8, ptr %5) #3
  ret void
}