; Function Attrs: mustprogress uwtable
define void @_ZN9grpc_core8channelz10SocketNode8Security18GetFromChannelArgsEPK17grpc_channel_args(ptr dead_on_unwind noalias writable writeonly sret(%"class.grpc_core::RefCountedPtr.36") align 8 captures(none) initializes((0, 8)) %0, ptr noundef %1) local_unnamed_addr #3 align 2 {
  %3 = tail call noundef ptr @_Z22grpc_channel_args_findPK17grpc_channel_argsPKc(ptr noundef %1, ptr noundef nonnull @.str.35)
  %4 = icmp eq ptr %3, null
  br i1 %4, label %_Z30grpc_channel_args_find_pointerIN9grpc_core8channelz10SocketNode8SecurityEEPT_PK17grpc_channel_argsPKc.exit.thread, label %5

5:                                                ; preds = %2
  %6 = load i32, ptr %3, align 8, !tbaa !336
  %.not.i = icmp eq i32 %6, 2
  br i1 %.not.i, label %_Z30grpc_channel_args_find_pointerIN9grpc_core8channelz10SocketNode8SecurityEEPT_PK17grpc_channel_argsPKc.exit, label %_Z30grpc_channel_args_find_pointerIN9grpc_core8channelz10SocketNode8SecurityEEPT_PK17grpc_channel_argsPKc.exit.thread

_Z30grpc_channel_args_find_pointerIN9grpc_core8channelz10SocketNode8SecurityEEPT_PK17grpc_channel_argsPKc.exit: ; preds = %5
  %7 = getelementptr inbounds nuw i8, ptr %3, i64 16
  %8 = load ptr, ptr %7, align 8, !tbaa !25
  %.not = icmp eq ptr %8, null
  br i1 %.not, label %_Z30grpc_channel_args_find_pointerIN9grpc_core8channelz10SocketNode8SecurityEEPT_PK17grpc_channel_argsPKc.exit.thread, label %9

9:                                                ; preds = %_Z30grpc_channel_args_find_pointerIN9grpc_core8channelz10SocketNode8SecurityEEPT_PK17grpc_channel_argsPKc.exit
  %10 = getelementptr inbounds nuw i8, ptr %8, i64 8
  %11 = atomicrmw add ptr %10, i64 1 monotonic, align 8, !noalias !339
  br label %_Z30grpc_channel_args_find_pointerIN9grpc_core8channelz10SocketNode8SecurityEEPT_PK17grpc_channel_argsPKc.exit.thread

_Z30grpc_channel_args_find_pointerIN9grpc_core8channelz10SocketNode8SecurityEEPT_PK17grpc_channel_argsPKc.exit.thread: ; preds = %_Z30grpc_channel_args_find_pointerIN9grpc_core8channelz10SocketNode8SecurityEEPT_PK17grpc_channel_argsPKc.exit, %5, %2, %9
  %storemerge = phi ptr [ %8, %9 ], [ null, %2 ], [ null, %5 ], [ null, %_Z30grpc_channel_args_find_pointerIN9grpc_core8channelz10SocketNode8SecurityEEPT_PK17grpc_channel_argsPKc.exit ]
  store ptr %storemerge, ptr %0, align 8, !tbaa !342
  ret void
}